target datalayout = "e-m:e-p270:32:32-p271:32:32-p272:64:64-i64:64-i128:128-f80:128-n8:16:32:64-S128"
target triple = "x86_64-pc-linux-gnu"

@.str.5 = private unnamed_addr constant [40 x i8] c"replication slot name \22%s\22 is too short\00", align 1
@.str.6 = private unnamed_addr constant [7 x i8] c"slot.c\00", align 1
@__func__.ReplicationSlotValidateName = private unnamed_addr constant [28 x i8] c"ReplicationSlotValidateName\00", align 1
@.str.7 = private unnamed_addr constant [39 x i8] c"replication slot name \22%s\22 is too long\00", align 1
@.str.8 = private unnamed_addr constant [54 x i8] c"replication slot name \22%s\22 contains invalid character\00", align 1
@.str.9 = private unnamed_addr constant [99 x i8] c"Replication slot names may only contain lower case letters, numbers, and the underscore character.\00", align 1

; Function Attrs: nounwind uwtable
define dso_local zeroext i1 @ReplicationSlotValidateName(ptr noundef %0, i32 noundef %1) #0 {
  %3 = alloca i1, align 1
  %4 = alloca ptr, align 8
  %5 = alloca i32, align 4
  %6 = alloca ptr, align 8
  %7 = alloca i32, align 4
  store ptr %0, ptr %4, align 8
  store i32 %1, ptr %5, align 4
  call void @llvm.lifetime.start.p0(i64 8, ptr %6) #12
  %8 = load ptr, ptr %4, align 8
  %9 = call i64 @strlen(ptr noundef %8) #13
  %10 = icmp eq i64 %9, 0
  br i1 %10, label %11, label %38

11:                                               ; preds = %2
  br label %12

12:                                               ; preds = %11
  %13 = load i32, ptr %5, align 4
  %14 = call i1 @llvm.is.constant.i32(i32 %13)
  br i1 %14, label %15, label %21

15:                                               ; preds = %12
  %16 = load i32, ptr %5, align 4
  %17 = icmp sge i32 %16, 21
  br i1 %17, label %18, label %21

18:                                               ; preds = %15
  %19 = load i32, ptr %5, align 4
  %20 = call zeroext i1 @errstart_cold(i32 noundef %19, ptr noundef null) #14
  br i1 %20, label %24, label %28

21:                                               ; preds = %15, %12
  %22 = load i32, ptr %5, align 4
  %23 = call zeroext i1 @errstart(i32 noundef %22, ptr noundef null)
  br i1 %23, label %24, label %28

24:                                               ; preds = %21, %18
  %25 = call i32 @errcode(i32 noundef 33579140)
  %26 = load ptr, ptr %4, align 8
  %27 = call i32 (ptr, ...) @errmsg(ptr noundef @.str.5, ptr noundef %26)
  call void @errfinish(ptr noundef @.str.6, i32 noundef 261, ptr noundef @__func__.ReplicationSlotValidateName)
  br label %28

28:                                               ; preds = %24, %21, %18
  %29 = load i32, ptr %5, align 4
  %30 = call i1 @llvm.is.constant.i32(i32 %29)
  br i1 %30, label %31, label %35

31:                                               ; preds = %28
  %32 = load i32, ptr %5, align 4
  %33 = icmp sge i32 %32, 21
  br i1 %33, label %34, label %35

34:                                               ; preds = %31
  unreachable

35:                                               ; preds = %31, %28
  br label %36

36:                                               ; preds = %35
  br label %37

37:                                               ; preds = %36
  store i1 false, ptr %3, align 1
  store i32 1, ptr %7, align 4
  br label %133

38:                                               ; preds = %2
  %39 = load ptr, ptr %4, align 8
  %40 = call i64 @strlen(ptr noundef %39) #13
  %41 = icmp uge i64 %40, 64
  br i1 %41, label %42, label %69

42:                                               ; preds = %38
  br label %43

43:                                               ; preds = %42
  %44 = load i32, ptr %5, align 4
  %45 = call i1 @llvm.is.constant.i32(i32 %44)
  br i1 %45, label %46, label %52

46:                                               ; preds = %43
  %47 = load i32, ptr %5, align 4
  %48 = icmp sge i32 %47, 21
  br i1 %48, label %49, label %52

49:                                               ; preds = %46
  %50 = load i32, ptr %5, align 4
  %51 = call zeroext i1 @errstart_cold(i32 noundef %50, ptr noundef null) #14
  br i1 %51, label %55, label %59

52:                                               ; preds = %46, %43
  %53 = load i32, ptr %5, align 4
  %54 = call zeroext i1 @errstart(i32 noundef %53, ptr noundef null)
  br i1 %54, label %55, label %59

55:                                               ; preds = %52, %49
  %56 = call i32 @errcode(i32 noundef 34103428)
  %57 = load ptr, ptr %4, align 8
  %58 = call i32 (ptr, ...) @errmsg(ptr noundef @.str.7, ptr noundef %57)
  call void @errfinish(ptr noundef @.str.6, i32 noundef 270, ptr noundef @__func__.ReplicationSlotValidateName)
  br label %59

59:                                               ; preds = %55, %52, %49
  %60 = load i32, ptr %5, align 4
  %61 = call i1 @llvm.is.constant.i32(i32 %60)
  br i1 %61, label %62, label %66

62:                                               ; preds = %59
  %63 = load i32, ptr %5, align 4
  %64 = icmp sge i32 %63, 21
  br i1 %64, label %65, label %66

65:                                               ; preds = %62
  unreachable

66:                                               ; preds = %62, %59
  br label %67

67:                                               ; preds = %66
  br label %68

68:                                               ; preds = %67
  store i1 false, ptr %3, align 1
  store i32 1, ptr %7, align 4
  br label %133

69:                                               ; preds = %38
  %70 = load ptr, ptr %4, align 8
  store ptr %70, ptr %6, align 8
  br label %71

71:                                               ; preds = %129, %69
  %72 = load ptr, ptr %6, align 8
  %73 = load i8, ptr %72, align 1
  %74 = icmp ne i8 %73, 0
  br i1 %74, label %75, label %132

75:                                               ; preds = %71
  %76 = load ptr, ptr %6, align 8
  %77 = load i8, ptr %76, align 1
  %78 = sext i8 %77 to i32
  %79 = icmp sge i32 %78, 97
  br i1 %79, label %80, label %85

80:                                               ; preds = %75
  %81 = load ptr, ptr %6, align 8
  %82 = load i8, ptr %81, align 1
  %83 = sext i8 %82 to i32
  %84 = icmp sle i32 %83, 122
  br i1 %84, label %128, label %85

85:                                               ; preds = %80, %75
  %86 = load ptr, ptr %6, align 8
  %87 = load i8, ptr %86, align 1
  %88 = sext i8 %87 to i32
  %89 = icmp sge i32 %88, 48
  br i1 %89, label %90, label %95

90:                                               ; preds = %85
  %91 = load ptr, ptr %6, align 8
  %92 = load i8, ptr %91, align 1
  %93 = sext i8 %92 to i32
  %94 = icmp sle i32 %93, 57
  br i1 %94, label %128, label %95

95:                                               ; preds = %90, %85
  %96 = load ptr, ptr %6, align 8
  %97 = load i8, ptr %96, align 1
  %98 = sext i8 %97 to i32
  %99 = icmp eq i32 %98, 95
  br i1 %99, label %128, label %100

100:                                              ; preds = %95
  br label %101

101:                                              ; preds = %100
  %102 = load i32, ptr %5, align 4
  %103 = call i1 @llvm.is.constant.i32(i32 %102)
  br i1 %103, label %104, label %110

104:                                              ; preds = %101
  %105 = load i32, ptr %5, align 4
  %106 = icmp sge i32 %105, 21
  br i1 %106, label %107, label %110

107:                                              ; preds = %104
  %108 = load i32, ptr %5, align 4
  %109 = call zeroext i1 @errstart_cold(i32 noundef %108, ptr noundef null) #14
  br i1 %109, label %113, label %118

110:                                              ; preds = %104, %101
  %111 = load i32, ptr %5, align 4
  %112 = call zeroext i1 @errstart(i32 noundef %111, ptr noundef null)
  br i1 %112, label %113, label %118

113:                                              ; preds = %110, %107
  %114 = call i32 @errcode(i32 noundef 33579140)
  %115 = load ptr, ptr %4, align 8
  %116 = call i32 (ptr, ...) @errmsg(ptr noundef @.str.8, ptr noundef %115)
  %117 = call i32 (ptr, ...) @errhint(ptr noundef @.str.9)
  call void @errfinish(ptr noundef @.str.6, i32 noundef 284, ptr noundef @__func__.ReplicationSlotValidateName)
  br label %118

118:                                              ; preds = %113, %110, %107
  %119 = load i32, ptr %5, align 4
  %120 = call i1 @llvm.is.constant.i32(i32 %119)
  br i1 %120, label %121, label %125

121:                                              ; preds = %118
  %122 = load i32, ptr %5, align 4
  %123 = icmp sge i32 %122, 21
  br i1 %123, label %124, label %125

124:                                              ; preds = %121
  unreachable

125:                                              ; preds = %121, %118
  br label %126

126:                                              ; preds = %125
  br label %127

127:                                              ; preds = %126
  store i1 false, ptr %3, align 1
  store i32 1, ptr %7, align 4
  br label %133

128:                                              ; preds = %95, %90, %80
  br label %129

129:                                              ; preds = %128
  %130 = load ptr, ptr %6, align 8
  %131 = getelementptr inbounds nuw i8, ptr %130, i32 1
  store ptr %131, ptr %6, align 8
  br label %71, !llvm.loop !10

132:                                              ; preds = %71
  store i1 true, ptr %3, align 1
  store i32 1, ptr %7, align 4
  br label %133

133:                                              ; preds = %132, %127, %68, %37
  call void @llvm.lifetime.end.p0(i64 8, ptr %6) #12
  %134 = load i1, ptr %3, align 1
  ret i1 %134
}