; Function Attrs: nounwind uwtable
define dso_local noundef zeroext i1 @ReplicationSlotValidateName(ptr noundef %0, i32 noundef %1) local_unnamed_addr #0 {
  %3 = tail call i64 @strlen(ptr noundef nonnull dereferenceable(1) %0) #18
  %4 = icmp eq i64 %3, 0
  br i1 %4, label %5, label %10

5:                                                ; preds = %2
  %6 = tail call zeroext i1 @errstart(i32 noundef %1, ptr noundef null) #17
  br i1 %6, label %7, label %.loopexit

7:                                                ; preds = %5
  %8 = tail call i32 @errcode(i32 noundef 33579140) #17
  %9 = tail call i32 (ptr, ...) @errmsg(ptr noundef nonnull @.str.5, ptr noundef nonnull %0) #17
  br label %.loopexit.sink.split.sink.split

10:                                               ; preds = %2
  %11 = icmp ugt i64 %3, 63
  br i1 %11, label %13, label %.preheader

.preheader:                                       ; preds = %10
  %12 = load i8, ptr %0, align 1
  %.not51 = icmp eq i8 %12, 0
  br i1 %.not51, label %.loopexit, label %.lr.ph

13:                                               ; preds = %10
  %14 = tail call zeroext i1 @errstart(i32 noundef %1, ptr noundef null) #17
  br i1 %14, label %15, label %.loopexit

15:                                               ; preds = %13
  %16 = tail call i32 @errcode(i32 noundef 34103428) #17
  %17 = tail call i32 (ptr, ...) @errmsg(ptr noundef nonnull @.str.7, ptr noundef nonnull %0) #17
  br label %.loopexit.sink.split.sink.split

.lr.ph:                                           ; preds = %.preheader, %29
  %18 = phi i8 [ %31, %29 ], [ %12, %.preheader ]
  %.052 = phi ptr [ %30, %29 ], [ %0, %.preheader ]
  %19 = add i8 %18, -97
  %or.cond48 = icmp ult i8 %19, 26
  br i1 %or.cond48, label %29, label %20

20:                                               ; preds = %.lr.ph
  %21 = add i8 %18, -48
  %or.cond49 = icmp ult i8 %21, 10
  %22 = icmp eq i8 %18, 95
  %or.cond50 = or i1 %22, %or.cond49
  br i1 %or.cond50, label %29, label %23

23:                                               ; preds = %20
  %24 = tail call zeroext i1 @errstart(i32 noundef %1, ptr noundef null) #17
  br i1 %24, label %25, label %.loopexit

25:                                               ; preds = %23
  %26 = tail call i32 @errcode(i32 noundef 33579140) #17
  %27 = tail call i32 (ptr, ...) @errmsg(ptr noundef nonnull @.str.8, ptr noundef nonnull %0) #17
  %28 = tail call i32 (ptr, ...) @errhint(ptr noundef nonnull @.str.9) #17
  br label %.loopexit.sink.split.sink.split

29:                                               ; preds = %20, %.lr.ph
  %30 = getelementptr inbounds nuw i8, ptr %.052, i64 1
  %31 = load i8, ptr %30, align 1
  %.not = icmp eq i8 %31, 0
  br i1 %.not, label %.loopexit, label %.lr.ph, !llvm.loop !9

.loopexit.sink.split.sink.split:                  ; preds = %7, %15, %25
  %.sink = phi i32 [ 284, %25 ], [ 270, %15 ], [ 261, %7 ]
  tail call void @errfinish(ptr noundef nonnull @.str.6, i32 noundef %.sink, ptr noundef nonnull @__func__.ReplicationSlotValidateName) #17
  br label %.loopexit

.loopexit:                                        ; preds = %29, %5, %13, %23, %.loopexit.sink.split.sink.split, %.preheader
  %.042 = phi i1 [ true, %.preheader ], [ false, %.loopexit.sink.split.sink.split ], [ false, %23 ], [ false, %13 ], [ false, %5 ], [ true, %29 ]
  ret i1 %.042
}